; ModuleID = '1/1705.c'
source_filename = "1/1705.c"
target datalayout = "e-m:e-p270:32:32-p271:32:32-p272:64:64-i64:64-f80:128-n8:16:32:64-S128"
target triple = "x86_64-pc-linux-gnu"

@ans = common dso_local global i32 0, align 4
@a = common dso_local global [20 x i32] zeroinitializer, align 16
@.str = private unnamed_addr constant [3 x i8] c"%d\00", align 1
@n = common dso_local global i32 0, align 4
@m = common dso_local global i32 0, align 4
@.str.1 = private unnamed_addr constant [4 x i8] c"%d\0A\00", align 1

; Function Attrs: noinline nounwind uwtable
define dso_local void @calc(i32 %0, i32 %1) #0 {
  %3 = alloca i32, align 4
  %4 = alloca i32, align 4
  %5 = alloca i32, align 4
  store i32 %0, i32* %3, align 4
  store i32 %1, i32* %4, align 4
  %6 = load i32, i32* %4, align 4
  %7 = icmp eq i32 %6, 1
  br i1 %7, label %8, label %11

8:                                                ; preds = %2
  %9 = load i32, i32* @ans, align 4
  %10 = add nsw i32 %9, 1
  store i32 %10, i32* @ans, align 4
  br label %40

11:                                               ; preds = %2
  %12 = load i32, i32* %3, align 4
  %13 = sub nsw i32 %12, 1
  %14 = sext i32 %13 to i64
  %15 = getelementptr inbounds [20 x i32], [20 x i32]* @a, i64 0, i64 %14
  %16 = load i32, i32* %15, align 4
  store i32 %16, i32* %5, align 4
  br label %17

17:                                               ; preds = %37, %11
  %18 = load i32, i32* %5, align 4
  %19 = load i32, i32* %4, align 4
  %20 = icmp sle i32 %18, %19
  br i1 %20, label %21, label %40

21:                                               ; preds = %17
  %22 = load i32, i32* %4, align 4
  %23 = load i32, i32* %5, align 4
  %24 = srem i32 %22, %23
  %25 = icmp ne i32 %24, 0
  br i1 %25, label %36, label %26

26:                                               ; preds = %21
  %27 = load i32, i32* %5, align 4
  %28 = load i32, i32* %3, align 4
  %29 = sext i32 %28 to i64
  %30 = getelementptr inbounds [20 x i32], [20 x i32]* @a, i64 0, i64 %29
  store i32 %27, i32* %30, align 4
  %31 = load i32, i32* %3, align 4
  %32 = add nsw i32 %31, 1
  %33 = load i32, i32* %4, align 4
  %34 = load i32, i32* %5, align 4
  %35 = sdiv i32 %33, %34
  call void @calc(i32 %32, i32 %35)
  br label %36

36:                                               ; preds = %26, %21
  br label %37

37:                                               ; preds = %36
  %38 = load i32, i32* %5, align 4
  %39 = add nsw i32 %38, 1
  store i32 %39, i32* %5, align 4
  br label %17

40:                                               ; preds = %8, %17
  ret void
}

; Function Attrs: noinline nounwind uwtable
define dso_local i32 @main() #0 {
  %1 = alloca i32, align 4
  store i32 0, i32* %1, align 4
  %2 = call i32 (i8*, ...) @__isoc99_scanf(i8* getelementptr inbounds ([3 x i8], [3 x i8]* @.str, i64 0, i64 0), i32* @n)
  store i32 2, i32* getelementptr inbounds ([20 x i32], [20 x i32]* @a, i64 0, i64 0), align 16
  br label %3

3:                                                ; preds = %11, %0
  %4 = load i32, i32* @n, align 4
  %5 = icmp ne i32 %4, 0
  br i1 %5, label %6, label %14

6:                                                ; preds = %3
  %7 = call i32 (i8*, ...) @__isoc99_scanf(i8* getelementptr inbounds ([3 x i8], [3 x i8]* @.str, i64 0, i64 0), i32* @m)
  store i32 0, i32* @ans, align 4
  %8 = load i32, i32* @m, align 4
  call void @calc(i32 1, i32 %8)
  %9 = load i32, i32* @ans, align 4
  %10 = call i32 (i8*, ...) @printf(i8* getelementptr inbounds ([4 x i8], [4 x i8]* @.str.1, i64 0, i64 0), i32 %9)
  br label %11

11:                                               ; preds = %6
  %12 = load i32, i32* @n, align 4
  %13 = add nsw i32 %12, -1
  store i32 %13, i32* @n, align 4
  br label %3

14:                                               ; preds = %3
  ret i32 0
}

declare dso_local i32 @__isoc99_scanf(i8*, ...) #1

declare dso_local i32 @printf(i8*, ...) #1


!llvm.module.flags = !{!0}
!llvm.ident = !{!1}

!0 = !{i32 1, !"wchar_size", i32 4}
!1 = !{!"clang version 10.0.0-4ubuntu1 "}
