; ModuleID = 'source-C-CXX/0/1705.c'
source_filename = "source-C-CXX/0/1705.c"
target datalayout = "e-m:e-p270:32:32-p271:32:32-p272:64:64-i64:64-f80:128-n8:16:32:64-S128"
target triple = "x86_64-pc-linux-gnu"

@ans = dso_local local_unnamed_addr global i32 0, align 4
@a = dso_local local_unnamed_addr global [20 x i32] zeroinitializer, align 16
@.str = private unnamed_addr constant [3 x i8] c"%d\00", align 1
@n = dso_local global i32 0, align 4
@m = dso_local global i32 0, align 4
@.str.1 = private unnamed_addr constant [4 x i8] c"%d\0A\00", align 1

; Function Attrs: nofree nosync nounwind sspstrong uwtable
define dso_local void @calc(i32 %0, i32 %1) local_unnamed_addr #0 {
  %3 = icmp eq i32 %1, 1
  br i1 %3, label %4, label %7

4:                                                ; preds = %2
  %5 = load i32, i32* @ans, align 4, !tbaa !5
  %6 = add nsw i32 %5, 1
  store i32 %6, i32* @ans, align 4, !tbaa !5
  br label %25

7:                                                ; preds = %2
  %8 = add nsw i32 %0, -1
  %9 = sext i32 %8 to i64
  %10 = getelementptr inbounds [20 x i32], [20 x i32]* @a, i64 0, i64 %9
  %11 = load i32, i32* %10, align 4, !tbaa !5
  %12 = sext i32 %0 to i64
  %13 = getelementptr inbounds [20 x i32], [20 x i32]* @a, i64 0, i64 %12
  %14 = add nsw i32 %0, 1
  %15 = icmp sgt i32 %11, %1
  br i1 %15, label %25, label %16

16:                                               ; preds = %7, %22
  %17 = phi i32 [ %23, %22 ], [ %11, %7 ]
  %18 = srem i32 %1, %17
  %19 = sdiv i32 %1, %17
  %20 = icmp eq i32 %18, 0
  br i1 %20, label %21, label %22

21:                                               ; preds = %16
  store i32 %17, i32* %13, align 4, !tbaa !5
  tail call void @calc(i32 %14, i32 %19)
  br label %22

22:                                               ; preds = %16, %21
  %23 = add i32 %17, 1
  %24 = icmp eq i32 %17, %1
  br i1 %24, label %25, label %16, !llvm.loop !9

25:                                               ; preds = %22, %7, %4
  ret void
}

; Function Attrs: nofree nounwind sspstrong uwtable
define dso_local i32 @main() local_unnamed_addr #1 {
  %1 = tail call i32 (i8*, ...) @__isoc99_scanf(i8* getelementptr inbounds ([3 x i8], [3 x i8]* @.str, i64 0, i64 0), i32* nonnull @n)
  store i32 2, i32* getelementptr inbounds ([20 x i32], [20 x i32]* @a, i64 0, i64 0), align 16, !tbaa !5
  %2 = load i32, i32* @n, align 4, !tbaa !5
  %3 = icmp eq i32 %2, 0
  br i1 %3, label %12, label %4

4:                                                ; preds = %0, %4
  %5 = tail call i32 (i8*, ...) @__isoc99_scanf(i8* getelementptr inbounds ([3 x i8], [3 x i8]* @.str, i64 0, i64 0), i32* nonnull @m)
  store i32 0, i32* @ans, align 4, !tbaa !5
  %6 = load i32, i32* @m, align 4, !tbaa !5
  tail call void @calc(i32 1, i32 %6)
  %7 = load i32, i32* @ans, align 4, !tbaa !5
  %8 = tail call i32 (i8*, ...) @printf(i8* nonnull dereferenceable(1) getelementptr inbounds ([4 x i8], [4 x i8]* @.str.1, i64 0, i64 0), i32 %7)
  %9 = load i32, i32* @n, align 4, !tbaa !5
  %10 = add nsw i32 %9, -1
  store i32 %10, i32* @n, align 4, !tbaa !5
  %11 = icmp eq i32 %10, 0
  br i1 %11, label %12, label %4, !llvm.loop !11

12:                                               ; preds = %4, %0
  ret i32 0
}

; Function Attrs: nofree nounwind
declare noundef i32 @__isoc99_scanf(i8* nocapture noundef readonly, ...) local_unnamed_addr #2

; Function Attrs: nofree nounwind
declare noundef i32 @printf(i8* nocapture noundef readonly, ...) local_unnamed_addr #2


!llvm.module.flags = !{!0, !1, !2, !3}
!llvm.ident = !{!4}

!0 = !{i32 1, !"wchar_size", i32 4}
!1 = !{i32 7, !"PIC Level", i32 2}
!2 = !{i32 7, !"PIE Level", i32 2}
!3 = !{i32 7, !"uwtable", i32 1}
!4 = !{!"clang version 13.0.0"}
!5 = !{!6, !6, i64 0}
!6 = !{!"int", !7, i64 0}
!7 = !{!"omnipotent char", !8, i64 0}
!8 = !{!"Simple C/C++ TBAA"}
!9 = distinct !{!9, !10}
!10 = !{!"llvm.loop.mustprogress"}
!11 = distinct !{!11, !10}
